; Function Attrs: mustprogress uwtable
define void @_ZN2cv12resizeWindowERKNSt7__cxx1112basic_stringIcSt11char_traitsIcESaIcEEEii(ptr noundef nonnull align 8 dereferenceable(32) %0, i32 noundef %1, i32 noundef %2) local_unnamed_addr #3 personality ptr @__gxx_personality_v0 {
  %4 = alloca %"class.cv::utils::trace::details::Region", align 8
  %5 = alloca %"class.std::shared_ptr", align 8
  call void @_ZN2cv5utils5trace7details6RegionC1ERKNS3_21LocationStaticStorageE(ptr noundef nonnull align 8 dereferenceable(12) %4, ptr noundef nonnull align 8 dereferenceable(32) @_ZZN2cv12resizeWindowERKNSt7__cxx1112basic_stringIcSt11char_traitsIcESaIcEEEiiE25__cv_trace_location_fn525)
  invoke fastcc void @_ZN2cv4implL11findWindow_ERKNSt7__cxx1112basic_stringIcSt11char_traitsIcESaIcEEE(ptr dead_on_unwind noalias nonnull writable align 8 %5, ptr noundef nonnull align 8 dereferenceable(32) %0)
          to label %6 unwind label %12

6:                                                ; preds = %3
  %7 = load ptr, ptr %5, align 8
  %.not = icmp eq ptr %7, null
  br i1 %.not, label %.critedge, label %8

8:                                                ; preds = %6
  %9 = load ptr, ptr %7, align 8
  %10 = getelementptr inbounds i8, ptr %9, i64 64
  %11 = load ptr, ptr %10, align 8
  invoke void %11(ptr noundef nonnull align 8 dereferenceable(8) %7, i32 noundef %1, i32 noundef %2)
          to label %16 unwind label %14

12:                                               ; preds = %_ZNSt10shared_ptrIN2cv15highgui_backend8UIWindowEED2Ev.exit17, %3
  %13 = landingpad { ptr, i32 }
          cleanup
  br label %96

14:                                               ; preds = %8
  %15 = landingpad { ptr, i32 }
          cleanup
  call void @_ZNSt10shared_ptrIN2cv15highgui_backend8UIWindowEED2Ev(ptr noundef nonnull align 8 dereferenceable(16) %5) #20
  br label %96

16:                                               ; preds = %8
  %17 = getelementptr inbounds i8, ptr %5, i64 8
  %18 = load ptr, ptr %17, align 8
  %.not.i.i.i = icmp eq ptr %18, null
  br i1 %.not.i.i.i, label %_ZNSt10shared_ptrIN2cv15highgui_backend8UIWindowEED2Ev.exit, label %19

19:                                               ; preds = %16
  %20 = getelementptr inbounds i8, ptr %18, i64 8
  %21 = load atomic i64, ptr %20 acquire, align 8
  %22 = icmp eq i64 %21, 4294967297
  %23 = trunc i64 %21 to i32
  br i1 %22, label %24, label %29

24:                                               ; preds = %19
  store i32 0, ptr %20, align 8
  %25 = getelementptr inbounds i8, ptr %18, i64 12
  store i32 0, ptr %25, align 4
  %26 = load ptr, ptr %18, align 8
  %27 = getelementptr inbounds i8, ptr %26, i64 16
  %28 = load ptr, ptr %27, align 8
  call void %28(ptr noundef nonnull align 8 dereferenceable(16) %18) #20
  br label %_ZNSt16_Sp_counted_baseILN9__gnu_cxx12_Lock_policyE2EE24_M_release_last_use_coldEv.exit.sink.split.i.i.i.i

29:                                               ; preds = %19
  %30 = load i8, ptr @__libc_single_threaded, align 1
  %.not.i.i.i.i = icmp eq i8 %30, 0
  br i1 %.not.i.i.i.i, label %33, label %31

31:                                               ; preds = %29
  %32 = add nsw i32 %23, -1
  store i32 %32, ptr %20, align 4
  br label %35

33:                                               ; preds = %29
  %34 = atomicrmw volatile add ptr %20, i32 -1 acq_rel, align 4
  br label %35

35:                                               ; preds = %33, %31
  %.0.i.i.i.i = phi i32 [ %23, %31 ], [ %34, %33 ]
  %36 = icmp eq i32 %.0.i.i.i.i, 1
  br i1 %36, label %37, label %_ZNSt10shared_ptrIN2cv15highgui_backend8UIWindowEED2Ev.exit

37:                                               ; preds = %35
  %38 = load ptr, ptr %18, align 8
  %39 = getelementptr inbounds i8, ptr %38, i64 16
  %40 = load ptr, ptr %39, align 8
  call void %40(ptr noundef nonnull align 8 dereferenceable(16) %18) #20
  %41 = getelementptr inbounds i8, ptr %18, i64 12
  %42 = load i8, ptr @__libc_single_threaded, align 1
  %.not.i.i.i.i.i.i = icmp eq i8 %42, 0
  br i1 %.not.i.i.i.i.i.i, label %46, label %43

43:                                               ; preds = %37
  %44 = load i32, ptr %41, align 4
  %45 = add nsw i32 %44, -1
  store i32 %45, ptr %41, align 4
  br label %48

46:                                               ; preds = %37
  %47 = atomicrmw volatile add ptr %41, i32 -1 acq_rel, align 4
  br label %48

48:                                               ; preds = %46, %43
  %.0.i.i.i.i.i.i = phi i32 [ %44, %43 ], [ %47, %46 ]
  %49 = icmp eq i32 %.0.i.i.i.i.i.i, 1
  br i1 %49, label %_ZNSt16_Sp_counted_baseILN9__gnu_cxx12_Lock_policyE2EE24_M_release_last_use_coldEv.exit.sink.split.i.i.i.i, label %_ZNSt10shared_ptrIN2cv15highgui_backend8UIWindowEED2Ev.exit

_ZNSt16_Sp_counted_baseILN9__gnu_cxx12_Lock_policyE2EE24_M_release_last_use_coldEv.exit.sink.split.i.i.i.i: ; preds = %48, %24
  %50 = load ptr, ptr %18, align 8
  %51 = getelementptr inbounds i8, ptr %50, i64 24
  %52 = load ptr, ptr %51, align 8
  call void %52(ptr noundef nonnull align 8 dereferenceable(16) %18) #20
  br label %_ZNSt10shared_ptrIN2cv15highgui_backend8UIWindowEED2Ev.exit

.critedge:                                        ; preds = %6
  %53 = getelementptr inbounds i8, ptr %5, i64 8
  %54 = load ptr, ptr %53, align 8
  %.not.i.i.i11 = icmp eq ptr %54, null
  br i1 %.not.i.i.i11, label %_ZNSt10shared_ptrIN2cv15highgui_backend8UIWindowEED2Ev.exit17, label %55

55:                                               ; preds = %.critedge
  %56 = getelementptr inbounds i8, ptr %54, i64 8
  %57 = load atomic i64, ptr %56 acquire, align 8
  %58 = icmp eq i64 %57, 4294967297
  %59 = trunc i64 %57 to i32
  br i1 %58, label %60, label %65

60:                                               ; preds = %55
  store i32 0, ptr %56, align 8
  %61 = getelementptr inbounds i8, ptr %54, i64 12
  store i32 0, ptr %61, align 4
  %62 = load ptr, ptr %54, align 8
  %63 = getelementptr inbounds i8, ptr %62, i64 16
  %64 = load ptr, ptr %63, align 8
  call void %64(ptr noundef nonnull align 8 dereferenceable(16) %54) #20
  br label %_ZNSt16_Sp_counted_baseILN9__gnu_cxx12_Lock_policyE2EE24_M_release_last_use_coldEv.exit.sink.split.i.i.i.i16

65:                                               ; preds = %55
  %66 = load i8, ptr @__libc_single_threaded, align 1
  %.not.i.i.i.i12 = icmp eq i8 %66, 0
  br i1 %.not.i.i.i.i12, label %69, label %67

67:                                               ; preds = %65
  %68 = add nsw i32 %59, -1
  store i32 %68, ptr %56, align 4
  br label %71

69:                                               ; preds = %65
  %70 = atomicrmw volatile add ptr %56, i32 -1 acq_rel, align 4
  br label %71

71:                                               ; preds = %69, %67
  %.0.i.i.i.i13 = phi i32 [ %59, %67 ], [ %70, %69 ]
  %72 = icmp eq i32 %.0.i.i.i.i13, 1
  br i1 %72, label %73, label %_ZNSt10shared_ptrIN2cv15highgui_backend8UIWindowEED2Ev.exit17

73:                                               ; preds = %71
  %74 = load ptr, ptr %54, align 8
  %75 = getelementptr inbounds i8, ptr %74, i64 16
  %76 = load ptr, ptr %75, align 8
  call void %76(ptr noundef nonnull align 8 dereferenceable(16) %54) #20
  %77 = getelementptr inbounds i8, ptr %54, i64 12
  %78 = load i8, ptr @__libc_single_threaded, align 1
  %.not.i.i.i.i.i.i14 = icmp eq i8 %78, 0
  br i1 %.not.i.i.i.i.i.i14, label %82, label %79

79:                                               ; preds = %73
  %80 = load i32, ptr %77, align 4
  %81 = add nsw i32 %80, -1
  store i32 %81, ptr %77, align 4
  br label %84

82:                                               ; preds = %73
  %83 = atomicrmw volatile add ptr %77, i32 -1 acq_rel, align 4
  br label %84

84:                                               ; preds = %82, %79
  %.0.i.i.i.i.i.i15 = phi i32 [ %80, %79 ], [ %83, %82 ]
  %85 = icmp eq i32 %.0.i.i.i.i.i.i15, 1
  br i1 %85, label %_ZNSt16_Sp_counted_baseILN9__gnu_cxx12_Lock_policyE2EE24_M_release_last_use_coldEv.exit.sink.split.i.i.i.i16, label %_ZNSt10shared_ptrIN2cv15highgui_backend8UIWindowEED2Ev.exit17

_ZNSt16_Sp_counted_baseILN9__gnu_cxx12_Lock_policyE2EE24_M_release_last_use_coldEv.exit.sink.split.i.i.i.i16: ; preds = %84, %60
  %86 = load ptr, ptr %54, align 8
  %87 = getelementptr inbounds i8, ptr %86, i64 24
  %88 = load ptr, ptr %87, align 8
  call void %88(ptr noundef nonnull align 8 dereferenceable(16) %54) #20
  br label %_ZNSt10shared_ptrIN2cv15highgui_backend8UIWindowEED2Ev.exit17

_ZNSt10shared_ptrIN2cv15highgui_backend8UIWindowEED2Ev.exit17: ; preds = %_ZNSt16_Sp_counted_baseILN9__gnu_cxx12_Lock_policyE2EE24_M_release_last_use_coldEv.exit.sink.split.i.i.i.i16, %84, %71, %.critedge
  %89 = call noundef ptr @_ZNKSt7__cxx1112basic_stringIcSt11char_traitsIcESaIcEE5c_strEv(ptr noundef nonnull align 8 dereferenceable(32) %0) #20
  invoke void @cvResizeWindow(ptr noundef %89, i32 noundef %1, i32 noundef %2)
          to label %_ZNSt10shared_ptrIN2cv15highgui_backend8UIWindowEED2Ev.exit unwind label %12

_ZNSt10shared_ptrIN2cv15highgui_backend8UIWindowEED2Ev.exit: ; preds = %_ZNSt16_Sp_counted_baseILN9__gnu_cxx12_Lock_policyE2EE24_M_release_last_use_coldEv.exit.sink.split.i.i.i.i, %48, %35, %16, %_ZNSt10shared_ptrIN2cv15highgui_backend8UIWindowEED2Ev.exit17
  %90 = getelementptr inbounds i8, ptr %4, i64 8
  %91 = load i32, ptr %90, align 8
  %.not.i = icmp eq i32 %91, 0
  br i1 %.not.i, label %_ZN2cv5utils5trace7details6RegionD2Ev.exit, label %92

92:                                               ; preds = %_ZNSt10shared_ptrIN2cv15highgui_backend8UIWindowEED2Ev.exit
  invoke void @_ZN2cv5utils5trace7details6Region7destroyEv(ptr noundef nonnull align 8 dereferenceable(12) %4)
          to label %_ZN2cv5utils5trace7details6RegionD2Ev.exit unwind label %93

93:                                               ; preds = %92
  %94 = landingpad { ptr, i32 }
          catch ptr null
  %95 = extractvalue { ptr, i32 } %94, 0
  call void @__clang_call_terminate(ptr %95) #23
  unreachable

_ZN2cv5utils5trace7details6RegionD2Ev.exit:       ; preds = %_ZNSt10shared_ptrIN2cv15highgui_backend8UIWindowEED2Ev.exit, %92
  ret void

96:                                               ; preds = %14, %12
  %.pn = phi { ptr, i32 } [ %13, %12 ], [ %15, %14 ]
  call void @_ZN2cv5utils5trace7details6RegionD2Ev(ptr noundef nonnull align 8 dereferenceable(12) %4) #20
  resume { ptr, i32 } %.pn
}